target datalayout = "e-m:e-p270:32:32-p271:32:32-p272:64:64-i64:64-i128:128-f80:128-n8:16:32:64-S128"
target triple = "x86_64-pc-linux-gnu"

; Function Attrs: alwaysinline nounwind willreturn memory(none) uwtable
define internal zeroext i16 @av_bswap16(i16 noundef zeroext %0) #6 {
  %2 = alloca i16, align 2
  store i16 %0, ptr %2, align 2, !tbaa !49
  %3 = load i16, ptr %2, align 2, !tbaa !49
  %4 = zext i16 %3 to i32
  %5 = ashr i32 %4, 8
  %6 = load i16, ptr %2, align 2, !tbaa !49
  %7 = zext i16 %6 to i32
  %8 = shl i32 %7, 8
  %9 = or i32 %5, %8
  %10 = trunc i32 %9 to i16
  store i16 %10, ptr %2, align 2, !tbaa !49
  %11 = load i16, ptr %2, align 2, !tbaa !49
  ret i16 %11
}

; Function Attrs: alwaysinline nounwind willreturn memory(none) uwtable
define internal i32 @av_clip_uintp2_c(i32 noundef %0, i32 noundef %1) #6 {
  %3 = alloca i32, align 4
  %4 = alloca i32, align 4
  %5 = alloca i32, align 4
  store i32 %0, ptr %4, align 4, !tbaa !30
  store i32 %1, ptr %5, align 4, !tbaa !30
  %6 = load i32, ptr %4, align 4, !tbaa !30
  %7 = load i32, ptr %5, align 4, !tbaa !30
  %8 = shl i32 1, %7
  %9 = sub i32 %8, 1
  %10 = xor i32 %9, -1
  %11 = and i32 %6, %10
  %12 = icmp ne i32 %11, 0
  br i1 %12, label %13, label %21

13:                                               ; preds = %2
  %14 = load i32, ptr %4, align 4, !tbaa !30
  %15 = xor i32 %14, -1
  %16 = ashr i32 %15, 31
  %17 = load i32, ptr %5, align 4, !tbaa !30
  %18 = shl i32 1, %17
  %19 = sub i32 %18, 1
  %20 = and i32 %16, %19
  store i32 %20, ptr %3, align 4
  br label %23

21:                                               ; preds = %2
  %22 = load i32, ptr %4, align 4, !tbaa !30
  store i32 %22, ptr %3, align 4
  br label %23

23:                                               ; preds = %21, %13
  %24 = load i32, ptr %3, align 4
  ret i32 %24
}

; Function Attrs: alwaysinline nounwind uwtable
define internal void @yuv2planeX_10_c_template(ptr noundef %0, i32 noundef %1, ptr noundef %2, ptr noundef %3, i32 noundef %4, i32 noundef %5, i32 noundef %6) #3 {
  %8 = alloca ptr, align 8
  %9 = alloca i32, align 4
  %10 = alloca ptr, align 8
  %11 = alloca ptr, align 8
  %12 = alloca i32, align 4
  %13 = alloca i32, align 4
  %14 = alloca i32, align 4
  %15 = alloca i32, align 4
  %16 = alloca i32, align 4
  %17 = alloca i32, align 4
  %18 = alloca i32, align 4
  store ptr %0, ptr %8, align 8, !tbaa !45
  store i32 %1, ptr %9, align 4, !tbaa !30
  store ptr %2, ptr %10, align 8, !tbaa !47
  store ptr %3, ptr %11, align 8, !tbaa !45
  store i32 %4, ptr %12, align 4, !tbaa !30
  store i32 %5, ptr %13, align 4, !tbaa !30
  store i32 %6, ptr %14, align 4, !tbaa !30
  call void @llvm.lifetime.start.p0(i64 4, ptr %15) #8
  call void @llvm.lifetime.start.p0(i64 4, ptr %16) #8
  %19 = load i32, ptr %14, align 4, !tbaa !30
  %20 = sub nsw i32 27, %19
  store i32 %20, ptr %16, align 4, !tbaa !30
  store i32 0, ptr %15, align 4, !tbaa !30
  br label %21

21:                                               ; preds = %83, %7
  %22 = load i32, ptr %15, align 4, !tbaa !30
  %23 = load i32, ptr %12, align 4, !tbaa !30
  %24 = icmp slt i32 %22, %23
  br i1 %24, label %25, label %86

25:                                               ; preds = %21
  call void @llvm.lifetime.start.p0(i64 4, ptr %17) #8
  %26 = load i32, ptr %16, align 4, !tbaa !30
  %27 = sub nsw i32 %26, 1
  %28 = shl i32 1, %27
  store i32 %28, ptr %17, align 4, !tbaa !30
  call void @llvm.lifetime.start.p0(i64 4, ptr %18) #8
  store i32 0, ptr %18, align 4, !tbaa !30
  br label %29

29:                                               ; preds = %53, %25
  %30 = load i32, ptr %18, align 4, !tbaa !30
  %31 = load i32, ptr %9, align 4, !tbaa !30
  %32 = icmp slt i32 %30, %31
  br i1 %32, label %33, label %56

33:                                               ; preds = %29
  %34 = load ptr, ptr %10, align 8, !tbaa !47
  %35 = load i32, ptr %18, align 4, !tbaa !30
  %36 = sext i32 %35 to i64
  %37 = getelementptr inbounds ptr, ptr %34, i64 %36
  %38 = load ptr, ptr %37, align 8, !tbaa !45
  %39 = load i32, ptr %15, align 4, !tbaa !30
  %40 = sext i32 %39 to i64
  %41 = getelementptr inbounds i16, ptr %38, i64 %40
  %42 = load i16, ptr %41, align 2, !tbaa !49
  %43 = sext i16 %42 to i32
  %44 = load ptr, ptr %8, align 8, !tbaa !45
  %45 = load i32, ptr %18, align 4, !tbaa !30
  %46 = sext i32 %45 to i64
  %47 = getelementptr inbounds i16, ptr %44, i64 %46
  %48 = load i16, ptr %47, align 2, !tbaa !49
  %49 = sext i16 %48 to i32
  %50 = mul nsw i32 %43, %49
  %51 = load i32, ptr %17, align 4, !tbaa !30
  %52 = add nsw i32 %51, %50
  store i32 %52, ptr %17, align 4, !tbaa !30
  br label %53

53:                                               ; preds = %33
  %54 = load i32, ptr %18, align 4, !tbaa !30
  %55 = add nsw i32 %54, 1
  store i32 %55, ptr %18, align 4, !tbaa !30
  br label %29, !llvm.loop !116

56:                                               ; preds = %29
  %57 = load i32, ptr %13, align 4, !tbaa !30
  %58 = icmp ne i32 %57, 0
  br i1 %58, label %59, label %71

59:                                               ; preds = %56
  %60 = load i32, ptr %17, align 4, !tbaa !30
  %61 = load i32, ptr %16, align 4, !tbaa !30
  %62 = ashr i32 %60, %61
  %63 = load i32, ptr %14, align 4, !tbaa !30
  %64 = call i32 @av_clip_uintp2_c(i32 noundef %62, i32 noundef %63) #10
  %65 = trunc i32 %64 to i16
  %66 = call zeroext i16 @av_bswap16(i16 noundef zeroext %65) #10
  %67 = load ptr, ptr %11, align 8, !tbaa !45
  %68 = load i32, ptr %15, align 4, !tbaa !30
  %69 = sext i32 %68 to i64
  %70 = getelementptr inbounds i16, ptr %67, i64 %69
  store i16 %66, ptr %70, align 1, !tbaa !51
  br label %82

71:                                               ; preds = %56
  %72 = load i32, ptr %17, align 4, !tbaa !30
  %73 = load i32, ptr %16, align 4, !tbaa !30
  %74 = ashr i32 %72, %73
  %75 = load i32, ptr %14, align 4, !tbaa !30
  %76 = call i32 @av_clip_uintp2_c(i32 noundef %74, i32 noundef %75) #10
  %77 = trunc i32 %76 to i16
  %78 = load ptr, ptr %11, align 8, !tbaa !45
  %79 = load i32, ptr %15, align 4, !tbaa !30
  %80 = sext i32 %79 to i64
  %81 = getelementptr inbounds i16, ptr %78, i64 %80
  store i16 %77, ptr %81, align 1, !tbaa !51
  br label %82

82:                                               ; preds = %71, %59
  call void @llvm.lifetime.end.p0(i64 4, ptr %18) #8
  call void @llvm.lifetime.end.p0(i64 4, ptr %17) #8
  br label %83

83:                                               ; preds = %82
  %84 = load i32, ptr %15, align 4, !tbaa !30
  %85 = add nsw i32 %84, 1
  store i32 %85, ptr %15, align 4, !tbaa !30
  br label %21, !llvm.loop !117

86:                                               ; preds = %21
  call void @llvm.lifetime.end.p0(i64 4, ptr %16) #8
  call void @llvm.lifetime.end.p0(i64 4, ptr %15) #8
  ret void
}

; Function Attrs: nounwind uwtable
define internal void @yuv2planeX_9BE_c(ptr noundef %0, i32 noundef %1, ptr noundef %2, ptr noundef %3, i32 noundef %4, ptr noundef %5, i32 noundef %6) #4 {
  %8 = alloca ptr, align 8
  %9 = alloca i32, align 4
  %10 = alloca ptr, align 8
  %11 = alloca ptr, align 8
  %12 = alloca i32, align 4
  %13 = alloca ptr, align 8
  %14 = alloca i32, align 4
  store ptr %0, ptr %8, align 8, !tbaa !45
  store i32 %1, ptr %9, align 4, !tbaa !30
  store ptr %2, ptr %10, align 8, !tbaa !47
  store ptr %3, ptr %11, align 8, !tbaa !46
  store i32 %4, ptr %12, align 4, !tbaa !30
  store ptr %5, ptr %13, align 8, !tbaa !46
  store i32 %6, ptr %14, align 4, !tbaa !30
  %15 = load ptr, ptr %8, align 8, !tbaa !45
  %16 = load i32, ptr %9, align 4, !tbaa !30
  %17 = load ptr, ptr %10, align 8, !tbaa !47
  %18 = load ptr, ptr %11, align 8, !tbaa !46
  %19 = load i32, ptr %12, align 4, !tbaa !30
  call void @yuv2planeX_10_c_template(ptr noundef %15, i32 noundef %16, ptr noundef %17, ptr noundef %18, i32 noundef %19, i32 noundef 1, i32 noundef 9)
  ret void
}